target datalayout = "e-m:e-p270:32:32-p271:32:32-p272:64:64-i64:64-i128:128-f80:128-n8:16:32:64-S128"
target triple = "x86_64-pc-linux-gnu"

%"struct.cv::utils::trace::details::Region::LocationStaticStorage" = type { ptr, ptr, ptr, i32, i32 }
%"class.cv::utils::trace::details::Region" = type <{ ptr, i32, [4 x i8] }>
%"class.std::__cxx11::basic_string" = type { %"struct.std::__cxx11::basic_string<char>::_Alloc_hider", i64, %union.anon }
%"struct.std::__cxx11::basic_string<char>::_Alloc_hider" = type { ptr }
%union.anon = type { i64, [8 x i8] }
%"class.std::allocator" = type { i8 }
%"class.std::shared_ptr" = type { %"class.std::__shared_ptr" }
%"class.std::__shared_ptr" = type { ptr, %"class.std::__shared_count" }
%"class.std::__shared_count" = type { ptr }

@.str.1 = private unnamed_addr constant [122 x i8] c"generated/home/dtcxzyw/WorkSpace/Projects/compilers/llvm-opt-benchmark/bench/opencv/opencv/modules/highgui/src/window.cpp\00", align 1
@.str.2 = private unnamed_addr constant [5 x i8] c"name\00", align 1
@_ZZ19cvGetWindowPropertyE25__cv_trace_location_fn279 = internal constant %"struct.cv::utils::trace::details::Region::LocationStaticStorage" { ptr @_ZZ19cvGetWindowPropertyE31__cv_trace_location_extra_fn279, ptr @.str.3, ptr @.str.1, i32 279, i32 1 }, align 8
@__func__.cvGetWindowProperty = private unnamed_addr constant [20 x i8] c"cvGetWindowProperty\00", align 1

; Function Attrs: mustprogress nounwind uwtable
define linkonce_odr hidden noundef ptr @_ZNKSt12__shared_ptrIN2cv15highgui_backend8UIWindowELN9__gnu_cxx12_Lock_policyE2EE3getEv(ptr noundef nonnull align 8 dereferenceable(16) %0) #7 comdat align 2 {
  %2 = alloca ptr, align 8
  store ptr %0, ptr %2, align 8
  %3 = load ptr, ptr %2, align 8
  %4 = getelementptr inbounds %"class.std::__shared_ptr", ptr %3, i32 0, i32 0
  %5 = load ptr, ptr %4, align 8
  ret ptr %5
}

; Function Attrs: mustprogress nounwind uwtable
define linkonce_odr hidden noundef ptr @_ZNKSt19__shared_ptr_accessIN2cv15highgui_backend8UIWindowELN9__gnu_cxx12_Lock_policyE2ELb0ELb0EE6_M_getEv(ptr noundef nonnull align 1 dereferenceable(1) %0) #7 comdat align 2 {
  %2 = alloca ptr, align 8
  store ptr %0, ptr %2, align 8
  %3 = load ptr, ptr %2, align 8
  %4 = call noundef ptr @_ZNKSt12__shared_ptrIN2cv15highgui_backend8UIWindowELN9__gnu_cxx12_Lock_policyE2EE3getEv(ptr noundef nonnull align 8 dereferenceable(16) %3) #3
  ret ptr %4
}

; Function Attrs: mustprogress nounwind uwtable
define internal noundef i32 @_ZL7cvIsNaNd(double noundef %0) #7 {
  %2 = alloca double, align 8
  store double %0, ptr %2, align 8
  %3 = load double, ptr %2, align 8
  %4 = call i1 @llvm.is.fpclass.f64(double %3, i32 3)
  %5 = zext i1 %4 to i32
  ret i32 %5
}

; Function Attrs: mustprogress nounwind uwtable
define linkonce_odr hidden noundef ptr @_ZNKSt19__shared_ptr_accessIN2cv15highgui_backend8UIWindowELN9__gnu_cxx12_Lock_policyE2ELb0ELb0EEptEv(ptr noundef nonnull align 1 dereferenceable(1) %0) #7 comdat align 2 {
  %2 = alloca ptr, align 8
  store ptr %0, ptr %2, align 8
  %3 = load ptr, ptr %2, align 8
  %4 = call noundef ptr @_ZNKSt19__shared_ptr_accessIN2cv15highgui_backend8UIWindowELN9__gnu_cxx12_Lock_policyE2ELb0ELb0EE6_M_getEv(ptr noundef nonnull align 1 dereferenceable(1) %3) #3
  ret ptr %4
}

; Function Attrs: mustprogress nounwind uwtable
define linkonce_odr hidden noundef zeroext i1 @_ZNKSt12__shared_ptrIN2cv15highgui_backend8UIWindowELN9__gnu_cxx12_Lock_policyE2EEcvbEv(ptr noundef nonnull align 8 dereferenceable(16) %0) #7 comdat align 2 {
  %2 = alloca ptr, align 8
  store ptr %0, ptr %2, align 8
  %3 = load ptr, ptr %2, align 8
  %4 = getelementptr inbounds %"class.std::__shared_ptr", ptr %3, i32 0, i32 0
  %5 = load ptr, ptr %4, align 8
  %6 = icmp ne ptr %5, null
  ret i1 %6
}

; Function Attrs: mustprogress uwtable
define double @cvGetWindowProperty(ptr noundef %0, i32 noundef %1) #4 personality ptr @__gxx_personality_v0 {
  %3 = alloca double, align 8
  %4 = alloca ptr, align 8
  %5 = alloca i32, align 4
  %6 = alloca %"class.cv::utils::trace::details::Region", align 8
  %7 = alloca %"class.std::__cxx11::basic_string", align 8
  %8 = alloca %"class.std::allocator", align 1
  %9 = alloca ptr, align 8
  %10 = alloca i32, align 4
  %11 = alloca %"class.std::shared_ptr", align 8
  %12 = alloca %"class.std::__cxx11::basic_string", align 8
  %13 = alloca %"class.std::allocator", align 1
  %14 = alloca double, align 8
  %15 = alloca i32, align 4
  store ptr %0, ptr %4, align 8
  store i32 %1, ptr %5, align 4
  call void @_ZN2cv5utils5trace7details6RegionC1ERKNS3_21LocationStaticStorageE(ptr noundef nonnull align 8 dereferenceable(12) %6, ptr noundef nonnull align 8 dereferenceable(32) @_ZZ19cvGetWindowPropertyE25__cv_trace_location_fn279)
  br label %16

16:                                               ; preds = %2
  %17 = load ptr, ptr %4, align 8
  %18 = icmp ne ptr %17, null
  br i1 %18, label %19, label %20

19:                                               ; preds = %16
  br label %32

20:                                               ; preds = %16
  call void @_ZNSaIcEC1Ev(ptr noundef nonnull align 1 dereferenceable(1) %8) #3
  invoke void @_ZNSt7__cxx1112basic_stringIcSt11char_traitsIcESaIcEEC1EPKcRKS3_(ptr noundef nonnull align 8 dereferenceable(32) %7, ptr noundef @.str.2, ptr noundef nonnull align 1 dereferenceable(1) %8)
          to label %21 unwind label %23

21:                                               ; preds = %20
  invoke void @_ZN2cv5errorEiRKNSt7__cxx1112basic_stringIcSt11char_traitsIcESaIcEEEPKcS9_i(i32 noundef -215, ptr noundef nonnull align 8 dereferenceable(32) %7, ptr noundef @__func__.cvGetWindowProperty, ptr noundef @.str.1, i32 noundef 280) #17
          to label %22 unwind label %27

22:                                               ; preds = %21
  unreachable

23:                                               ; preds = %20
  %24 = landingpad { ptr, i32 }
          cleanup
  %25 = extractvalue { ptr, i32 } %24, 0
  store ptr %25, ptr %9, align 8
  %26 = extractvalue { ptr, i32 } %24, 1
  store i32 %26, ptr %10, align 4
  br label %31

27:                                               ; preds = %21
  %28 = landingpad { ptr, i32 }
          cleanup
  %29 = extractvalue { ptr, i32 } %28, 0
  store ptr %29, ptr %9, align 8
  %30 = extractvalue { ptr, i32 } %28, 1
  store i32 %30, ptr %10, align 4
  call void @_ZNSt7__cxx1112basic_stringIcSt11char_traitsIcESaIcEED1Ev(ptr noundef nonnull align 8 dereferenceable(32) %7) #3
  br label %31

31:                                               ; preds = %27, %23
  call void @_ZNSaIcED1Ev(ptr noundef nonnull align 1 dereferenceable(1) %8) #3
  br label %98

32:                                               ; preds = %19
  br label %33

33:                                               ; preds = %32
  br label %34

34:                                               ; preds = %33
  %35 = load ptr, ptr %4, align 8
  call void @_ZNSaIcEC1Ev(ptr noundef nonnull align 1 dereferenceable(1) %13) #3
  invoke void @_ZNSt7__cxx1112basic_stringIcSt11char_traitsIcESaIcEEC1EPKcRKS3_(ptr noundef nonnull align 8 dereferenceable(32) %12, ptr noundef %35, ptr noundef nonnull align 1 dereferenceable(1) %13)
          to label %36 unwind label %52

36:                                               ; preds = %34
  invoke void @_ZN2cv4implL11findWindow_ERKNSt7__cxx1112basic_stringIcSt11char_traitsIcESaIcEEE(ptr dead_on_unwind writable sret(%"class.std::shared_ptr") align 8 %11, ptr noundef nonnull align 8 dereferenceable(32) %12)
          to label %37 unwind label %56

37:                                               ; preds = %36
  call void @_ZNSt7__cxx1112basic_stringIcSt11char_traitsIcESaIcEED1Ev(ptr noundef nonnull align 8 dereferenceable(32) %12) #3
  call void @_ZNSaIcED1Ev(ptr noundef nonnull align 1 dereferenceable(1) %13) #3
  %38 = call noundef zeroext i1 @_ZNKSt12__shared_ptrIN2cv15highgui_backend8UIWindowELN9__gnu_cxx12_Lock_policyE2EEcvbEv(ptr noundef nonnull align 8 dereferenceable(16) %11) #3
  br i1 %38, label %39, label %67

39:                                               ; preds = %37
  %40 = call noundef ptr @_ZNKSt19__shared_ptr_accessIN2cv15highgui_backend8UIWindowELN9__gnu_cxx12_Lock_policyE2ELb0ELb0EEptEv(ptr noundef nonnull align 1 dereferenceable(1) %11) #3
  %41 = load i32, ptr %5, align 4
  %42 = load ptr, ptr %40, align 8
  %43 = getelementptr inbounds ptr, ptr %42, i64 6
  %44 = load ptr, ptr %43, align 8
  %45 = invoke noundef double %44(ptr noundef nonnull align 8 dereferenceable(8) %40, i32 noundef %41)
          to label %46 unwind label %61

46:                                               ; preds = %39
  store double %45, ptr %14, align 8
  %47 = load double, ptr %14, align 8
  %48 = invoke noundef i32 @_ZL7cvIsNaNd(double noundef %47)
          to label %49 unwind label %61

49:                                               ; preds = %46
  %50 = icmp ne i32 %48, 0
  br i1 %50, label %51, label %65

51:                                               ; preds = %49
  store double -1.000000e+00, ptr %3, align 8
  store i32 1, ptr %15, align 4
  br label %68

52:                                               ; preds = %34
  %53 = landingpad { ptr, i32 }
          cleanup
  %54 = extractvalue { ptr, i32 } %53, 0
  store ptr %54, ptr %9, align 8
  %55 = extractvalue { ptr, i32 } %53, 1
  store i32 %55, ptr %10, align 4
  br label %60

56:                                               ; preds = %36
  %57 = landingpad { ptr, i32 }
          cleanup
  %58 = extractvalue { ptr, i32 } %57, 0
  store ptr %58, ptr %9, align 8
  %59 = extractvalue { ptr, i32 } %57, 1
  store i32 %59, ptr %10, align 4
  call void @_ZNSt7__cxx1112basic_stringIcSt11char_traitsIcESaIcEED1Ev(ptr noundef nonnull align 8 dereferenceable(32) %12) #3
  br label %60

60:                                               ; preds = %56, %52
  call void @_ZNSaIcED1Ev(ptr noundef nonnull align 1 dereferenceable(1) %13) #3
  br label %98

61:                                               ; preds = %46, %39
  %62 = landingpad { ptr, i32 }
          cleanup
  %63 = extractvalue { ptr, i32 } %62, 0
  store ptr %63, ptr %9, align 8
  %64 = extractvalue { ptr, i32 } %62, 1
  store i32 %64, ptr %10, align 4
  call void @_ZNSt10shared_ptrIN2cv15highgui_backend8UIWindowEED2Ev(ptr noundef nonnull align 8 dereferenceable(16) %11) #3
  br label %98

65:                                               ; preds = %49
  %66 = load double, ptr %14, align 8
  store double %66, ptr %3, align 8
  store i32 1, ptr %15, align 4
  br label %68

67:                                               ; preds = %37
  store i32 0, ptr %15, align 4
  br label %68

68:                                               ; preds = %67, %65, %51
  call void @_ZNSt10shared_ptrIN2cv15highgui_backend8UIWindowEED2Ev(ptr noundef nonnull align 8 dereferenceable(16) %11) #3
  %69 = load i32, ptr %15, align 4
  switch i32 %69, label %96 [
    i32 0, label %70
  ]

70:                                               ; preds = %68
  %71 = load i32, ptr %5, align 4
  switch i32 %71, label %95 [
    i32 0, label %72
    i32 1, label %80
    i32 2, label %84
    i32 3, label %88
    i32 4, label %92
    i32 5, label %93
    i32 6, label %94
  ]

72:                                               ; preds = %70
  %73 = load ptr, ptr %4, align 8
  %74 = invoke noundef double @_Z19cvGetModeWindow_GTKPKc(ptr noundef %73)
          to label %75 unwind label %76

75:                                               ; preds = %72
  store double %74, ptr %3, align 8
  store i32 1, ptr %15, align 4
  br label %96

76:                                               ; preds = %88, %84, %80, %72
  %77 = landingpad { ptr, i32 }
          cleanup
  %78 = extractvalue { ptr, i32 } %77, 0
  store ptr %78, ptr %9, align 8
  %79 = extractvalue { ptr, i32 } %77, 1
  store i32 %79, ptr %10, align 4
  br label %98

80:                                               ; preds = %70
  %81 = load ptr, ptr %4, align 8
  %82 = invoke noundef double @_Z27cvGetPropWindowAutoSize_GTKPKc(ptr noundef %81)
          to label %83 unwind label %76

83:                                               ; preds = %80
  store double %82, ptr %3, align 8
  store i32 1, ptr %15, align 4
  br label %96

84:                                               ; preds = %70
  %85 = load ptr, ptr %4, align 8
  %86 = invoke noundef double @_Z20cvGetRatioWindow_GTKPKc(ptr noundef %85)
          to label %87 unwind label %76

87:                                               ; preds = %84
  store double %86, ptr %3, align 8
  store i32 1, ptr %15, align 4
  br label %96

88:                                               ; preds = %70
  %89 = load ptr, ptr %4, align 8
  %90 = invoke noundef double @_Z19cvGetOpenGlProp_GTKPKc(ptr noundef %89)
          to label %91 unwind label %76

91:                                               ; preds = %88
  store double %90, ptr %3, align 8
  store i32 1, ptr %15, align 4
  br label %96

92:                                               ; preds = %70
  store double -1.000000e+00, ptr %3, align 8
  store i32 1, ptr %15, align 4
  br label %96

93:                                               ; preds = %70
  store double -1.000000e+00, ptr %3, align 8
  store i32 1, ptr %15, align 4
  br label %96

94:                                               ; preds = %70
  store double -1.000000e+00, ptr %3, align 8
  store i32 1, ptr %15, align 4
  br label %96

95:                                               ; preds = %70
  store double -1.000000e+00, ptr %3, align 8
  store i32 1, ptr %15, align 4
  br label %96

96:                                               ; preds = %95, %94, %93, %92, %91, %87, %83, %75, %68
  call void @_ZN2cv5utils5trace7details6RegionD2Ev(ptr noundef nonnull align 8 dereferenceable(12) %6) #3
  %97 = load double, ptr %3, align 8
  ret double %97

98:                                               ; preds = %76, %61, %60, %31
  call void @_ZN2cv5utils5trace7details6RegionD2Ev(ptr noundef nonnull align 8 dereferenceable(12) %6) #3
  br label %99

99:                                               ; preds = %98
  %100 = load ptr, ptr %9, align 8
  %101 = load i32, ptr %10, align 4
  %102 = insertvalue { ptr, i32 } poison, ptr %100, 0
  %103 = insertvalue { ptr, i32 } %102, i32 %101, 1
  resume { ptr, i32 } %103
}