; Function Attrs: mustprogress uwtable
define double @cvGetWindowProperty(ptr noundef %0, i32 noundef %1) local_unnamed_addr #3 personality ptr @__gxx_personality_v0 {
  %3 = alloca %"class.cv::utils::trace::details::Region", align 8
  %4 = alloca %"class.std::__cxx11::basic_string", align 8
  %5 = alloca %"class.std::allocator", align 1
  %6 = alloca %"class.std::shared_ptr", align 8
  %7 = alloca %"class.std::__cxx11::basic_string", align 8
  %8 = alloca %"class.std::allocator", align 1
  call void @_ZN2cv5utils5trace7details6RegionC1ERKNS3_21LocationStaticStorageE(ptr noundef nonnull align 8 dereferenceable(12) %3, ptr noundef nonnull align 8 dereferenceable(32) @_ZZ19cvGetWindowPropertyE25__cv_trace_location_fn279)
  %.not = icmp eq ptr %0, null
  br i1 %.not, label %9, label %17

9:                                                ; preds = %2
  call void @_ZNSaIcEC1Ev(ptr noundef nonnull align 1 dereferenceable(1) %5) #20
  invoke void @_ZNSt7__cxx1112basic_stringIcSt11char_traitsIcESaIcEEC1EPKcRKS3_(ptr noundef nonnull align 8 dereferenceable(32) %4, ptr noundef nonnull @.str.2, ptr noundef nonnull align 1 dereferenceable(1) %5)
          to label %10 unwind label %12

10:                                               ; preds = %9
  invoke void @_ZN2cv5errorEiRKNSt7__cxx1112basic_stringIcSt11char_traitsIcESaIcEEEPKcS9_i(i32 noundef -215, ptr noundef nonnull align 8 dereferenceable(32) %4, ptr noundef nonnull @__func__.cvGetWindowProperty, ptr noundef nonnull @.str.1, i32 noundef 280) #22
          to label %11 unwind label %14

11:                                               ; preds = %10
  unreachable

12:                                               ; preds = %9
  %13 = landingpad { ptr, i32 }
          cleanup
  br label %16

14:                                               ; preds = %10
  %15 = landingpad { ptr, i32 }
          cleanup
  call void @_ZNSt7__cxx1112basic_stringIcSt11char_traitsIcESaIcEED1Ev(ptr noundef nonnull align 8 dereferenceable(32) %4) #20
  br label %16

16:                                               ; preds = %14, %12
  %.pn = phi { ptr, i32 } [ %15, %14 ], [ %13, %12 ]
  call void @_ZNSaIcED1Ev(ptr noundef nonnull align 1 dereferenceable(1) %5) #20
  br label %90

17:                                               ; preds = %2
  call void @_ZNSaIcEC1Ev(ptr noundef nonnull align 1 dereferenceable(1) %8) #20
  invoke void @_ZNSt7__cxx1112basic_stringIcSt11char_traitsIcESaIcEEC1EPKcRKS3_(ptr noundef nonnull align 8 dereferenceable(32) %7, ptr noundef nonnull %0, ptr noundef nonnull align 1 dereferenceable(1) %8)
          to label %18 unwind label %28

18:                                               ; preds = %17
  invoke fastcc void @_ZN2cv4implL11findWindow_ERKNSt7__cxx1112basic_stringIcSt11char_traitsIcESaIcEEE(ptr dead_on_unwind noalias nonnull writable align 8 %6, ptr noundef nonnull align 8 dereferenceable(32) %7)
          to label %19 unwind label %30

19:                                               ; preds = %18
  call void @_ZNSt7__cxx1112basic_stringIcSt11char_traitsIcESaIcEED1Ev(ptr noundef nonnull align 8 dereferenceable(32) %7) #20
  call void @_ZNSaIcED1Ev(ptr noundef nonnull align 1 dereferenceable(1) %8) #20
  %20 = load ptr, ptr %6, align 8
  %.not26 = icmp eq ptr %20, null
  br i1 %.not26, label %35, label %21

21:                                               ; preds = %19
  %22 = load ptr, ptr %20, align 8
  %23 = getelementptr inbounds i8, ptr %22, i64 48
  %24 = load ptr, ptr %23, align 8
  %25 = invoke noundef double %24(ptr noundef nonnull align 8 dereferenceable(8) %20, i32 noundef %1)
          to label %26 unwind label %33

26:                                               ; preds = %21
  %27 = fcmp ord double %25, 0.000000e+00
  %. = select i1 %27, double %25, double -1.000000e+00
  br label %35

28:                                               ; preds = %17
  %29 = landingpad { ptr, i32 }
          cleanup
  br label %32

30:                                               ; preds = %18
  %31 = landingpad { ptr, i32 }
          cleanup
  call void @_ZNSt7__cxx1112basic_stringIcSt11char_traitsIcESaIcEED1Ev(ptr noundef nonnull align 8 dereferenceable(32) %7) #20
  br label %32

32:                                               ; preds = %30, %28
  %.pn21 = phi { ptr, i32 } [ %31, %30 ], [ %29, %28 ]
  call void @_ZNSaIcED1Ev(ptr noundef nonnull align 1 dereferenceable(1) %8) #20
  br label %90

33:                                               ; preds = %21
  %34 = landingpad { ptr, i32 }
          cleanup
  call void @_ZNSt10shared_ptrIN2cv15highgui_backend8UIWindowEED2Ev(ptr noundef nonnull align 8 dereferenceable(16) %6) #20
  br label %90

35:                                               ; preds = %19, %26
  %.013 = phi double [ %., %26 ], [ undef, %19 ]
  %36 = getelementptr inbounds i8, ptr %6, i64 8
  %37 = load ptr, ptr %36, align 8
  %.not.i.i.i = icmp eq ptr %37, null
  br i1 %.not.i.i.i, label %_ZNSt10shared_ptrIN2cv15highgui_backend8UIWindowEED2Ev.exit, label %38

38:                                               ; preds = %35
  %39 = getelementptr inbounds i8, ptr %37, i64 8
  %40 = load atomic i64, ptr %39 acquire, align 8
  %41 = icmp eq i64 %40, 4294967297
  %42 = trunc i64 %40 to i32
  br i1 %41, label %43, label %48

43:                                               ; preds = %38
  store i32 0, ptr %39, align 8
  %44 = getelementptr inbounds i8, ptr %37, i64 12
  store i32 0, ptr %44, align 4
  %45 = load ptr, ptr %37, align 8
  %46 = getelementptr inbounds i8, ptr %45, i64 16
  %47 = load ptr, ptr %46, align 8
  call void %47(ptr noundef nonnull align 8 dereferenceable(16) %37) #20
  br label %_ZNSt16_Sp_counted_baseILN9__gnu_cxx12_Lock_policyE2EE24_M_release_last_use_coldEv.exit.sink.split.i.i.i.i

48:                                               ; preds = %38
  %49 = load i8, ptr @__libc_single_threaded, align 1
  %.not.i.i.i.i = icmp eq i8 %49, 0
  br i1 %.not.i.i.i.i, label %52, label %50

50:                                               ; preds = %48
  %51 = add nsw i32 %42, -1
  store i32 %51, ptr %39, align 4
  br label %54

52:                                               ; preds = %48
  %53 = atomicrmw volatile add ptr %39, i32 -1 acq_rel, align 4
  br label %54

54:                                               ; preds = %52, %50
  %.0.i.i.i.i = phi i32 [ %42, %50 ], [ %53, %52 ]
  %55 = icmp eq i32 %.0.i.i.i.i, 1
  br i1 %55, label %56, label %_ZNSt10shared_ptrIN2cv15highgui_backend8UIWindowEED2Ev.exit

56:                                               ; preds = %54
  %57 = load ptr, ptr %37, align 8
  %58 = getelementptr inbounds i8, ptr %57, i64 16
  %59 = load ptr, ptr %58, align 8
  call void %59(ptr noundef nonnull align 8 dereferenceable(16) %37) #20
  %60 = getelementptr inbounds i8, ptr %37, i64 12
  %61 = load i8, ptr @__libc_single_threaded, align 1
  %.not.i.i.i.i.i.i = icmp eq i8 %61, 0
  br i1 %.not.i.i.i.i.i.i, label %65, label %62

62:                                               ; preds = %56
  %63 = load i32, ptr %60, align 4
  %64 = add nsw i32 %63, -1
  store i32 %64, ptr %60, align 4
  br label %67

65:                                               ; preds = %56
  %66 = atomicrmw volatile add ptr %60, i32 -1 acq_rel, align 4
  br label %67

67:                                               ; preds = %65, %62
  %.0.i.i.i.i.i.i = phi i32 [ %63, %62 ], [ %66, %65 ]
  %68 = icmp eq i32 %.0.i.i.i.i.i.i, 1
  br i1 %68, label %_ZNSt16_Sp_counted_baseILN9__gnu_cxx12_Lock_policyE2EE24_M_release_last_use_coldEv.exit.sink.split.i.i.i.i, label %_ZNSt10shared_ptrIN2cv15highgui_backend8UIWindowEED2Ev.exit

_ZNSt16_Sp_counted_baseILN9__gnu_cxx12_Lock_policyE2EE24_M_release_last_use_coldEv.exit.sink.split.i.i.i.i: ; preds = %67, %43
  %69 = load ptr, ptr %37, align 8
  %70 = getelementptr inbounds i8, ptr %69, i64 24
  %71 = load ptr, ptr %70, align 8
  call void %71(ptr noundef nonnull align 8 dereferenceable(16) %37) #20
  br label %_ZNSt10shared_ptrIN2cv15highgui_backend8UIWindowEED2Ev.exit

_ZNSt10shared_ptrIN2cv15highgui_backend8UIWindowEED2Ev.exit: ; preds = %35, %54, %67, %_ZNSt16_Sp_counted_baseILN9__gnu_cxx12_Lock_policyE2EE24_M_release_last_use_coldEv.exit.sink.split.i.i.i.i
  br i1 %.not26, label %72, label %83

72:                                               ; preds = %_ZNSt10shared_ptrIN2cv15highgui_backend8UIWindowEED2Ev.exit
  switch i32 %1, label %83 [
    i32 0, label %73
    i32 1, label %77
    i32 2, label %79
    i32 3, label %81
  ]

73:                                               ; preds = %72
  %74 = invoke noundef double @_Z19cvGetModeWindow_GTKPKc(ptr noundef nonnull %0)
          to label %83 unwind label %75

75:                                               ; preds = %81, %79, %77, %73
  %76 = landingpad { ptr, i32 }
          cleanup
  br label %90

77:                                               ; preds = %72
  %78 = invoke noundef double @_Z27cvGetPropWindowAutoSize_GTKPKc(ptr noundef nonnull %0)
          to label %83 unwind label %75

79:                                               ; preds = %72
  %80 = invoke noundef double @_Z20cvGetRatioWindow_GTKPKc(ptr noundef nonnull %0)
          to label %83 unwind label %75

81:                                               ; preds = %72
  %82 = invoke noundef double @_Z19cvGetOpenGlProp_GTKPKc(ptr noundef nonnull %0)
          to label %83 unwind label %75

83:                                               ; preds = %72, %81, %79, %77, %73, %_ZNSt10shared_ptrIN2cv15highgui_backend8UIWindowEED2Ev.exit
  %.1 = phi double [ %.013, %_ZNSt10shared_ptrIN2cv15highgui_backend8UIWindowEED2Ev.exit ], [ %74, %73 ], [ %78, %77 ], [ %80, %79 ], [ %82, %81 ], [ -1.000000e+00, %72 ]
  %84 = getelementptr inbounds i8, ptr %3, i64 8
  %85 = load i32, ptr %84, align 8
  %.not.i = icmp eq i32 %85, 0
  br i1 %.not.i, label %_ZN2cv5utils5trace7details6RegionD2Ev.exit, label %86

86:                                               ; preds = %83
  invoke void @_ZN2cv5utils5trace7details6Region7destroyEv(ptr noundef nonnull align 8 dereferenceable(12) %3)
          to label %_ZN2cv5utils5trace7details6RegionD2Ev.exit unwind label %87

87:                                               ; preds = %86
  %88 = landingpad { ptr, i32 }
          catch ptr null
  %89 = extractvalue { ptr, i32 } %88, 0
  call void @__clang_call_terminate(ptr %89) #23
  unreachable

_ZN2cv5utils5trace7details6RegionD2Ev.exit:       ; preds = %83, %86
  ret double %.1

90:                                               ; preds = %75, %33, %32, %16
  %.pn24 = phi { ptr, i32 } [ %76, %75 ], [ %34, %33 ], [ %.pn21, %32 ], [ %.pn, %16 ]
  call void @_ZN2cv5utils5trace7details6RegionD2Ev(ptr noundef nonnull align 8 dereferenceable(12) %3) #20
  resume { ptr, i32 } %.pn24
}